; Function Attrs: nofree norecurse nosync nounwind memory(argmem: readwrite) uwtable
define internal void @dc_left_32x32_c(ptr noundef writeonly captures(none) %0, i64 noundef %1, ptr noundef readonly captures(none) %2, ptr readnone captures(none) %3) #2 {
  %5 = load i8, ptr %2, align 1, !tbaa !8
  %6 = zext i8 %5 to i32
  %7 = getelementptr inbounds nuw i8, ptr %2, i64 1
  %8 = load i8, ptr %7, align 1, !tbaa !8
  %9 = zext i8 %8 to i32
  %10 = getelementptr inbounds nuw i8, ptr %2, i64 2
  %11 = load i8, ptr %10, align 1, !tbaa !8
  %12 = zext i8 %11 to i32
  %13 = getelementptr inbounds nuw i8, ptr %2, i64 3
  %14 = load i8, ptr %13, align 1, !tbaa !8
  %15 = zext i8 %14 to i32
  %16 = getelementptr inbounds nuw i8, ptr %2, i64 4
  %17 = load i8, ptr %16, align 1, !tbaa !8
  %18 = zext i8 %17 to i32
  %19 = getelementptr inbounds nuw i8, ptr %2, i64 5
  %20 = load i8, ptr %19, align 1, !tbaa !8
  %21 = zext i8 %20 to i32
  %22 = getelementptr inbounds nuw i8, ptr %2, i64 6
  %23 = load i8, ptr %22, align 1, !tbaa !8
  %24 = zext i8 %23 to i32
  %25 = getelementptr inbounds nuw i8, ptr %2, i64 7
  %26 = load i8, ptr %25, align 1, !tbaa !8
  %27 = zext i8 %26 to i32
  %28 = getelementptr inbounds nuw i8, ptr %2, i64 8
  %29 = load i8, ptr %28, align 1, !tbaa !8
  %30 = zext i8 %29 to i32
  %31 = getelementptr inbounds nuw i8, ptr %2, i64 9
  %32 = load i8, ptr %31, align 1, !tbaa !8
  %33 = zext i8 %32 to i32
  %34 = getelementptr inbounds nuw i8, ptr %2, i64 10
  %35 = load i8, ptr %34, align 1, !tbaa !8
  %36 = zext i8 %35 to i32
  %37 = getelementptr inbounds nuw i8, ptr %2, i64 11
  %38 = load i8, ptr %37, align 1, !tbaa !8
  %39 = zext i8 %38 to i32
  %40 = getelementptr inbounds nuw i8, ptr %2, i64 12
  %41 = load i8, ptr %40, align 1, !tbaa !8
  %42 = zext i8 %41 to i32
  %43 = getelementptr inbounds nuw i8, ptr %2, i64 13
  %44 = load i8, ptr %43, align 1, !tbaa !8
  %45 = zext i8 %44 to i32
  %46 = getelementptr inbounds nuw i8, ptr %2, i64 14
  %47 = load i8, ptr %46, align 1, !tbaa !8
  %48 = zext i8 %47 to i32
  %49 = getelementptr inbounds nuw i8, ptr %2, i64 15
  %50 = load i8, ptr %49, align 1, !tbaa !8
  %51 = zext i8 %50 to i32
  %52 = getelementptr inbounds nuw i8, ptr %2, i64 16
  %53 = load i8, ptr %52, align 1, !tbaa !8
  %54 = zext i8 %53 to i32
  %55 = getelementptr inbounds nuw i8, ptr %2, i64 17
  %56 = load i8, ptr %55, align 1, !tbaa !8
  %57 = zext i8 %56 to i32
  %58 = getelementptr inbounds nuw i8, ptr %2, i64 18
  %59 = load i8, ptr %58, align 1, !tbaa !8
  %60 = zext i8 %59 to i32
  %61 = getelementptr inbounds nuw i8, ptr %2, i64 19
  %62 = load i8, ptr %61, align 1, !tbaa !8
  %63 = zext i8 %62 to i32
  %64 = getelementptr inbounds nuw i8, ptr %2, i64 20
  %65 = load i8, ptr %64, align 1, !tbaa !8
  %66 = zext i8 %65 to i32
  %67 = getelementptr inbounds nuw i8, ptr %2, i64 21
  %68 = load i8, ptr %67, align 1, !tbaa !8
  %69 = zext i8 %68 to i32
  %70 = getelementptr inbounds nuw i8, ptr %2, i64 22
  %71 = load i8, ptr %70, align 1, !tbaa !8
  %72 = zext i8 %71 to i32
  %73 = getelementptr inbounds nuw i8, ptr %2, i64 23
  %74 = load i8, ptr %73, align 1, !tbaa !8
  %75 = zext i8 %74 to i32
  %76 = getelementptr inbounds nuw i8, ptr %2, i64 24
  %77 = load i8, ptr %76, align 1, !tbaa !8
  %78 = zext i8 %77 to i32
  %79 = getelementptr inbounds nuw i8, ptr %2, i64 25
  %80 = load i8, ptr %79, align 1, !tbaa !8
  %81 = zext i8 %80 to i32
  %82 = getelementptr inbounds nuw i8, ptr %2, i64 26
  %83 = load i8, ptr %82, align 1, !tbaa !8
  %84 = zext i8 %83 to i32
  %85 = getelementptr inbounds nuw i8, ptr %2, i64 27
  %86 = load i8, ptr %85, align 1, !tbaa !8
  %87 = zext i8 %86 to i32
  %88 = getelementptr inbounds nuw i8, ptr %2, i64 28
  %89 = load i8, ptr %88, align 1, !tbaa !8
  %90 = zext i8 %89 to i32
  %91 = getelementptr inbounds nuw i8, ptr %2, i64 29
  %92 = load i8, ptr %91, align 1, !tbaa !8
  %93 = zext i8 %92 to i32
  %94 = getelementptr inbounds nuw i8, ptr %2, i64 30
  %95 = load i8, ptr %94, align 1, !tbaa !8
  %96 = zext i8 %95 to i32
  %97 = getelementptr inbounds nuw i8, ptr %2, i64 31
  %98 = load i8, ptr %97, align 1, !tbaa !8
  %99 = zext i8 %98 to i32
  %100 = add nuw nsw i32 %6, 16
  %101 = add nuw nsw i32 %100, %9
  %102 = add nuw nsw i32 %101, %12
  %103 = add nuw nsw i32 %102, %15
  %104 = add nuw nsw i32 %103, %18
  %105 = add nuw nsw i32 %104, %21
  %106 = add nuw nsw i32 %105, %24
  %107 = add nuw nsw i32 %106, %27
  %108 = add nuw nsw i32 %107, %30
  %109 = add nuw nsw i32 %108, %33
  %110 = add nuw nsw i32 %109, %36
  %111 = add nuw nsw i32 %110, %39
  %112 = add nuw nsw i32 %111, %42
  %113 = add nuw nsw i32 %112, %45
  %114 = add nuw nsw i32 %113, %48
  %115 = add nuw nsw i32 %114, %51
  %116 = add nuw nsw i32 %115, %54
  %117 = add nuw nsw i32 %116, %57
  %118 = add nuw nsw i32 %117, %60
  %119 = add nuw nsw i32 %118, %63
  %120 = add nuw nsw i32 %119, %66
  %121 = add nuw nsw i32 %120, %69
  %122 = add nuw nsw i32 %121, %72
  %123 = add nuw nsw i32 %122, %75
  %124 = add nuw nsw i32 %123, %78
  %125 = add nuw nsw i32 %124, %81
  %126 = add nuw nsw i32 %125, %84
  %127 = add nuw nsw i32 %126, %87
  %128 = add nuw nsw i32 %127, %90
  %129 = add nuw nsw i32 %128, %93
  %130 = add nuw nsw i32 %129, %96
  %131 = add nuw nsw i32 %130, %99
  %132 = lshr i32 %131, 5
  %133 = mul nuw i32 %132, 16843009
  br label %134

134:                                              ; preds = %4, %134
  %.056 = phi i32 [ 0, %4 ], [ %143, %134 ]
  %.05455 = phi ptr [ %0, %4 ], [ %142, %134 ]
  store i32 %133, ptr %.05455, align 4, !tbaa !8
  %135 = getelementptr inbounds nuw i8, ptr %.05455, i64 4
  store i32 %133, ptr %135, align 4, !tbaa !8
  %136 = getelementptr inbounds nuw i8, ptr %.05455, i64 8
  store i32 %133, ptr %136, align 4, !tbaa !8
  %137 = getelementptr inbounds nuw i8, ptr %.05455, i64 12
  store i32 %133, ptr %137, align 4, !tbaa !8
  %138 = getelementptr inbounds nuw i8, ptr %.05455, i64 16
  store i32 %133, ptr %138, align 4, !tbaa !8
  %139 = getelementptr inbounds nuw i8, ptr %.05455, i64 20
  store i32 %133, ptr %139, align 4, !tbaa !8
  %140 = getelementptr inbounds nuw i8, ptr %.05455, i64 24
  store i32 %133, ptr %140, align 4, !tbaa !8
  %141 = getelementptr inbounds nuw i8, ptr %.05455, i64 28
  store i32 %133, ptr %141, align 4, !tbaa !8
  %142 = getelementptr inbounds i8, ptr %.05455, i64 %1
  %143 = add nuw nsw i32 %.056, 1
  %exitcond.not = icmp eq i32 %143, 32
  br i1 %exitcond.not, label %144, label %134, !llvm.loop !74

144:                                              ; preds = %134
  ret void
}